; Function Attrs: nounwind uwtable
define ptr @l_Lake_Toml_val_formatter(ptr noundef %0, ptr noundef %1, ptr noundef %2, ptr noundef %3, ptr noundef %4) #1 {
  %6 = load ptr, ptr @l_Lake_Toml_val___closed__1, align 8, !tbaa !10
  %7 = load ptr, ptr @l_Lake_Toml_val___closed__2, align 8, !tbaa !10
  tail call void @lean_inc_heartbeat() #4
  %8 = tail call noalias ptr @mi_malloc_small(i64 noundef 56) #4
  %9 = icmp eq ptr %8, null
  br i1 %9, label %10, label %l_Lake_Toml_recNodeWithAntiquot_formatter.exit

10:                                               ; preds = %5
  tail call void @lean_internal_panic_out_of_memory() #5
  unreachable

l_Lake_Toml_recNodeWithAntiquot_formatter.exit:   ; preds = %5
  %11 = getelementptr inbounds nuw i8, ptr %8, i64 4
  store i32 1, ptr %8, align 4, !tbaa !4
  store i32 -184549320, ptr %11, align 4
  %12 = getelementptr inbounds nuw i8, ptr %8, i64 8
  store ptr @l_Lean_Parser_mkAntiquot_formatter___boxed, ptr %12, align 8, !tbaa !10
  %13 = getelementptr inbounds nuw i8, ptr %8, i64 16
  store i16 9, ptr %13, align 8, !tbaa !18
  %14 = getelementptr inbounds nuw i8, ptr %8, i64 18
  store i16 4, ptr %14, align 2, !tbaa !18
  %15 = getelementptr inbounds nuw i8, ptr %8, i64 24
  store ptr %6, ptr %15, align 8, !tbaa !10
  %16 = getelementptr inbounds nuw i8, ptr %8, i64 32
  store ptr %7, ptr %16, align 8, !tbaa !10
  %17 = getelementptr inbounds nuw i8, ptr %8, i64 40
  store ptr inttoptr (i64 3 to ptr), ptr %17, align 8, !tbaa !10
  %18 = getelementptr inbounds nuw i8, ptr %8, i64 48
  store ptr inttoptr (i64 3 to ptr), ptr %18, align 8, !tbaa !10
  %19 = load ptr, ptr @l_Lake_Toml_recNodeWithAntiquot_formatter___closed__1, align 8, !tbaa !10
  %20 = tail call ptr @l_Lean_PrettyPrinter_Formatter_orelse_formatter(ptr noundef nonnull %8, ptr noundef %19, ptr noundef %0, ptr noundef %1, ptr noundef %2, ptr noundef %3, ptr noundef %4) #4
  ret ptr %20
}